	.file	"BinaryExpression.cpp"
	.text
.Ltext0:
	.file 0 "/home/acryoz/CLionProjects/untitled5/t3/src" "BinaryExpression.cpp"
	.local	_ZStL8__ioinit
	.comm	_ZStL8__ioinit,1,1
	.section	.text._ZN10ExpressionC2Ev,"axG",@progbits,_ZN10ExpressionC5Ev,comdat
	.align 2
	.weak	_ZN10ExpressionC2Ev
	.type	_ZN10ExpressionC2Ev, @function
_ZN10ExpressionC2Ev:
.LFB1733:
	.file 1 "../headers/Expression.h"
	.loc 1 10 7
	.cfi_startproc
	endbr64
	pushq	%rbp
	.cfi_def_cfa_offset 16
	.cfi_offset 6, -16
	movq	%rsp, %rbp
	.cfi_def_cfa_register 6
	movq	%rdi, -8(%rbp)
.LBB2:
	.loc 1 10 7
	leaq	16+_ZTV10Expression(%rip), %rdx
	movq	-8(%rbp), %rax
	movq	%rdx, (%rax)
.LBE2:
	nop
	popq	%rbp
	.cfi_def_cfa 7, 8
	ret
	.cfi_endproc
.LFE1733:
	.size	_ZN10ExpressionC2Ev, .-_ZN10ExpressionC2Ev
	.weak	_ZN10ExpressionC1Ev
	.set	_ZN10ExpressionC1Ev,_ZN10ExpressionC2Ev
	.section	.text._ZN10ExpressionD2Ev,"axG",@progbits,_ZN10ExpressionD5Ev,comdat
	.align 2
	.weak	_ZN10ExpressionD2Ev
	.type	_ZN10ExpressionD2Ev, @function
_ZN10ExpressionD2Ev:
.LFB1736:
	.loc 1 13 13
	.cfi_startproc
	endbr64
	pushq	%rbp
	.cfi_def_cfa_offset 16
	.cfi_offset 6, -16
	movq	%rsp, %rbp
	.cfi_def_cfa_register 6
	movq	%rdi, -8(%rbp)
.LBB3:
	.loc 1 13 13
	leaq	16+_ZTV10Expression(%rip), %rdx
	movq	-8(%rbp), %rax
	movq	%rdx, (%rax)
.LBE3:
	nop
	popq	%rbp
	.cfi_def_cfa 7, 8
	ret
	.cfi_endproc
.LFE1736:
	.size	_ZN10ExpressionD2Ev, .-_ZN10ExpressionD2Ev
	.weak	_ZN10ExpressionD1Ev
	.set	_ZN10ExpressionD1Ev,_ZN10ExpressionD2Ev
	.section	.text._ZN10ExpressionD0Ev,"axG",@progbits,_ZN10ExpressionD5Ev,comdat
	.align 2
	.weak	_ZN10ExpressionD0Ev
	.type	_ZN10ExpressionD0Ev, @function
_ZN10ExpressionD0Ev:
.LFB1738:
	.loc 1 13 13
	.cfi_startproc
	endbr64
	pushq	%rbp
	.cfi_def_cfa_offset 16
	.cfi_offset 6, -16
	movq	%rsp, %rbp
	.cfi_def_cfa_register 6
	subq	$16, %rsp
	movq	%rdi, -8(%rbp)
	.loc 1 13 13
	movq	-8(%rbp), %rax
	movq	%rax, %rdi
	call	_ZN10ExpressionD1Ev
	movq	-8(%rbp), %rax
	movl	$8, %esi
	movq	%rax, %rdi
	call	_ZdlPvm@PLT
	leave
	.cfi_def_cfa 7, 8
	ret
	.cfi_endproc
.LFE1738:
	.size	_ZN10ExpressionD0Ev, .-_ZN10ExpressionD0Ev
	.text
	.align 2
	.globl	_ZN16BinaryExpressionC2EP10ExpressioncS1_
	.type	_ZN16BinaryExpressionC2EP10ExpressioncS1_, @function
_ZN16BinaryExpressionC2EP10ExpressioncS1_:
.LFB1739:
	.file 2 "BinaryExpression.cpp"
	.loc 2 7 1
	.cfi_startproc
	endbr64
	pushq	%rbp
	.cfi_def_cfa_offset 16
	.cfi_offset 6, -16
	movq	%rsp, %rbp
	.cfi_def_cfa_register 6
	subq	$32, %rsp
	movq	%rdi, -8(%rbp)
	movq	%rsi, -16(%rbp)
	movl	%edx, %eax
	movq	%rcx, -32(%rbp)
	movb	%al, -20(%rbp)
.LBB4:
	.loc 2 7 74
	movq	-8(%rbp), %rax
	movq	%rax, %rdi
	call	_ZN10ExpressionC2Ev
	leaq	16+_ZTV16BinaryExpression(%rip), %rdx
	movq	-8(%rbp), %rax
	movq	%rdx, (%rax)
	.loc 2 8 16
	movq	-8(%rbp), %rax
	movq	-16(%rbp), %rdx
	movq	%rdx, 16(%rax)
	.loc 2 9 17
	movq	-8(%rbp), %rax
	movq	-32(%rbp), %rdx
	movq	%rdx, 24(%rax)
	.loc 2 10 16
	movq	-8(%rbp), %rax
	movzbl	-20(%rbp), %edx
	movb	%dl, 8(%rax)
.LBE4:
	.loc 2 11 1
	nop
	leave
	.cfi_def_cfa 7, 8
	ret
	.cfi_endproc
.LFE1739:
	.size	_ZN16BinaryExpressionC2EP10ExpressioncS1_, .-_ZN16BinaryExpressionC2EP10ExpressioncS1_
	.globl	_ZN16BinaryExpressionC1EP10ExpressioncS1_
	.set	_ZN16BinaryExpressionC1EP10ExpressioncS1_,_ZN16BinaryExpressionC2EP10ExpressioncS1_
	.section	.rodata
.LC1:
	.string	"Divide by zero exception"
	.text
	.align 2
	.globl	_ZNK16BinaryExpression8evaluateEv
	.type	_ZNK16BinaryExpression8evaluateEv, @function
_ZNK16BinaryExpression8evaluateEv:
.LFB1741:
	.loc 2 14 43
	.cfi_startproc
	.cfi_personality 0x9b,DW.ref.__gxx_personality_v0
	.cfi_lsda 0x1b,.LLSDA1741
	endbr64
	pushq	%rbp
	.cfi_def_cfa_offset 16
	.cfi_offset 6, -16
	movq	%rsp, %rbp
	.cfi_def_cfa_register 6
	pushq	%r12
	pushq	%rbx
	subq	$48, %rsp
	.cfi_offset 12, -24
	.cfi_offset 3, -32
	movq	%rdi, -56(%rbp)
	.loc 2 16 29
	movq	-56(%rbp), %rax
	movq	16(%rax), %rax
	.loc 2 16 43
	movq	(%rax), %rax
	movq	(%rax), %rdx
	.loc 2 16 29
	movq	-56(%rbp), %rax
	movq	16(%rax), %rax
	.loc 2 16 43
	movq	%rax, %rdi
.LEHB0:
	call	*%rdx
.LVL0:
	movq	%xmm0, %rax
	movq	%rax, -32(%rbp)
	.loc 2 17 30
	movq	-56(%rbp), %rax
	movq	24(%rax), %rax
	.loc 2 17 45
	movq	(%rax), %rax
	movq	(%rax), %rdx
	.loc 2 17 30
	movq	-56(%rbp), %rax
	movq	24(%rax), %rax
	.loc 2 17 45
	movq	%rax, %rdi
	call	*%rdx
.LVL1:
.LEHE0:
	movq	%xmm0, %rax
	movq	%rax, -24(%rbp)
	.loc 2 18 19
	movq	-56(%rbp), %rax
	movzbl	8(%rax), %eax
	movsbl	%al, %eax
	.loc 2 18 5
	cmpl	$47, %eax
	je	.L6
	cmpl	$47, %eax
	jg	.L7
	cmpl	$45, %eax
	je	.L8
	cmpl	$45, %eax
	jg	.L7
	cmpl	$42, %eax
	je	.L9
	cmpl	$43, %eax
	jne	.L7
	.loc 2 20 20
	movsd	-32(%rbp), %xmm0
	addsd	-24(%rbp), %xmm0
	movsd	%xmm0, -40(%rbp)
	.loc 2 21 13
	jmp	.L7
.L8:
	.loc 2 23 20
	movsd	-32(%rbp), %xmm0
	subsd	-24(%rbp), %xmm0
	movsd	%xmm0, -40(%rbp)
	.loc 2 24 13
	jmp	.L7
.L9:
	.loc 2 26 20
	movsd	-32(%rbp), %xmm0
	mulsd	-24(%rbp), %xmm0
	movsd	%xmm0, -40(%rbp)
	.loc 2 27 13
	jmp	.L7
.L6:
	.loc 2 29 13
	pxor	%xmm0, %xmm0
	ucomisd	-24(%rbp), %xmm0
	jp	.L10
	pxor	%xmm0, %xmm0
	ucomisd	-24(%rbp), %xmm0
	jne	.L10
	.loc 2 30 69
	movl	$16, %edi
	call	__cxa_allocate_exception@PLT
	movq	%rax, %rbx
	.loc 2 30 17
	leaq	.LC1(%rip), %rax
	movq	%rax, %rsi
	movq	%rbx, %rdi
.LEHB1:
	call	_ZNSt14overflow_errorC1EPKc@PLT
.LEHE1:
	.loc 2 30 69 discriminator 2
	movq	_ZNSt14overflow_errorD1Ev@GOTPCREL(%rip), %rax
	movq	%rax, %rdx
	leaq	_ZTISt14overflow_error(%rip), %rax
	movq	%rax, %rsi
	movq	%rbx, %rdi
.LEHB2:
	call	__cxa_throw@PLT
.L10:
	.loc 2 33 24
	movsd	-32(%rbp), %xmm0
	divsd	-24(%rbp), %xmm0
	movsd	%xmm0, -40(%rbp)
	.loc 2 35 13
	nop
.L7:
	.loc 2 37 12
	movsd	-40(%rbp), %xmm0
	movq	%xmm0, %rax
	jmp	.L16
.L14:
	endbr64
	.loc 2 30 69
	movq	%rax, %r12
	movq	%rbx, %rdi
	call	__cxa_free_exception@PLT
	movq	%r12, %rax
	movq	%rax, %rdi
	call	_Unwind_Resume@PLT
.LEHE2:
.L16:
	.loc 2 38 1
	movq	%rax, %xmm0
	addq	$48, %rsp
	popq	%rbx
	popq	%r12
	popq	%rbp
	.cfi_def_cfa 7, 8
	ret
	.cfi_endproc
.LFE1741:
	.globl	__gxx_personality_v0
	.section	.gcc_except_table,"a",@progbits
.LLSDA1741:
	.byte	0xff
	.byte	0xff
	.byte	0x1
	.uleb128 .LLSDACSE1741-.LLSDACSB1741
.LLSDACSB1741:
	.uleb128 .LEHB0-.LFB1741
	.uleb128 .LEHE0-.LEHB0
	.uleb128 0
	.uleb128 0
	.uleb128 .LEHB1-.LFB1741
	.uleb128 .LEHE1-.LEHB1
	.uleb128 .L14-.LFB1741
	.uleb128 0
	.uleb128 .LEHB2-.LFB1741
	.uleb128 .LEHE2-.LEHB2
	.uleb128 0
	.uleb128 0
.LLSDACSE1741:
	.text
	.size	_ZNK16BinaryExpression8evaluateEv, .-_ZNK16BinaryExpression8evaluateEv
	.align 2
	.globl	_ZN16BinaryExpressionD2Ev
	.type	_ZN16BinaryExpressionD2Ev, @function
_ZN16BinaryExpressionD2Ev:
.LFB1743:
	.loc 2 41 1
	.cfi_startproc
	endbr64
	pushq	%rbp
	.cfi_def_cfa_offset 16
	.cfi_offset 6, -16
	movq	%rsp, %rbp
	.cfi_def_cfa_register 6
	subq	$16, %rsp
	movq	%rdi, -8(%rbp)
.LBB5:
	.loc 2 41 37
	leaq	16+_ZTV16BinaryExpression(%rip), %rdx
	movq	-8(%rbp), %rax
	movq	%rdx, (%rax)
	.loc 2 42 18
	movq	-8(%rbp), %rax
	movq	16(%rax), %rax
	.loc 2 42 5
	testq	%rax, %rax
	je	.L18
	.loc 2 42 18 discriminator 1
	movq	(%rax), %rdx
	addq	$16, %rdx
	movq	(%rdx), %rdx
	movq	%rax, %rdi
	call	*%rdx
.LVL2:
.L18:
	.loc 2 43 18
	movq	-8(%rbp), %rax
	movq	24(%rax), %rax
	.loc 2 43 5
	testq	%rax, %rax
	je	.L19
	.loc 2 43 18 discriminator 1
	movq	(%rax), %rdx
	addq	$16, %rdx
	movq	(%rdx), %rdx
	movq	%rax, %rdi
	call	*%rdx
.LVL3:
.L19:
	.loc 2 44 1
	movq	-8(%rbp), %rax
	movq	%rax, %rdi
	call	_ZN10ExpressionD2Ev
.LBE5:
	nop
	leave
	.cfi_def_cfa 7, 8
	ret
	.cfi_endproc
.LFE1743:
	.size	_ZN16BinaryExpressionD2Ev, .-_ZN16BinaryExpressionD2Ev
	.globl	_ZN16BinaryExpressionD1Ev
	.set	_ZN16BinaryExpressionD1Ev,_ZN16BinaryExpressionD2Ev
	.align 2
	.globl	_ZN16BinaryExpressionD0Ev
	.type	_ZN16BinaryExpressionD0Ev, @function
_ZN16BinaryExpressionD0Ev:
.LFB1745:
	.loc 2 41 1
	.cfi_startproc
	endbr64
	pushq	%rbp
	.cfi_def_cfa_offset 16
	.cfi_offset 6, -16
	movq	%rsp, %rbp
	.cfi_def_cfa_register 6
	subq	$16, %rsp
	movq	%rdi, -8(%rbp)
	.loc 2 44 1
	movq	-8(%rbp), %rax
	movq	%rax, %rdi
	call	_ZN16BinaryExpressionD1Ev
	movq	-8(%rbp), %rax
	movl	$32, %esi
	movq	%rax, %rdi
	call	_ZdlPvm@PLT
	leave
	.cfi_def_cfa 7, 8
	ret
	.cfi_endproc
.LFE1745:
	.size	_ZN16BinaryExpressionD0Ev, .-_ZN16BinaryExpressionD0Ev
	.weak	_ZTV16BinaryExpression
	.section	.data.rel.ro.local._ZTV16BinaryExpression,"awG",@progbits,_ZTV16BinaryExpression,comdat
	.align 8
	.type	_ZTV16BinaryExpression, @object
	.size	_ZTV16BinaryExpression, 40
_ZTV16BinaryExpression:
	.quad	0
	.quad	_ZTI16BinaryExpression
	.quad	_ZNK16BinaryExpression8evaluateEv
	.quad	_ZN16BinaryExpressionD1Ev
	.quad	_ZN16BinaryExpressionD0Ev
	.weak	_ZTV10Expression
	.section	.data.rel.ro._ZTV10Expression,"awG",@progbits,_ZTV10Expression,comdat
	.align 8
	.type	_ZTV10Expression, @object
	.size	_ZTV10Expression, 40
_ZTV10Expression:
	.quad	0
	.quad	_ZTI10Expression
	.quad	__cxa_pure_virtual
	.quad	0
	.quad	0
	.weak	_ZTI16BinaryExpression
	.section	.data.rel.ro._ZTI16BinaryExpression,"awG",@progbits,_ZTI16BinaryExpression,comdat
	.align 8
	.type	_ZTI16BinaryExpression, @object
	.size	_ZTI16BinaryExpression, 24
_ZTI16BinaryExpression:
	.quad	_ZTVN10__cxxabiv120__si_class_type_infoE+16
	.quad	_ZTS16BinaryExpression
	.quad	_ZTI10Expression
	.weak	_ZTS16BinaryExpression
	.section	.rodata._ZTS16BinaryExpression,"aG",@progbits,_ZTS16BinaryExpression,comdat
	.align 16
	.type	_ZTS16BinaryExpression, @object
	.size	_ZTS16BinaryExpression, 19
_ZTS16BinaryExpression:
	.string	"16BinaryExpression"
	.weak	_ZTI10Expression
	.section	.data.rel.ro._ZTI10Expression,"awG",@progbits,_ZTI10Expression,comdat
	.align 8
	.type	_ZTI10Expression, @object
	.size	_ZTI10Expression, 16
_ZTI10Expression:
	.quad	_ZTVN10__cxxabiv117__class_type_infoE+16
	.quad	_ZTS10Expression
	.weak	_ZTS10Expression
	.section	.rodata._ZTS10Expression,"aG",@progbits,_ZTS10Expression,comdat
	.align 8
	.type	_ZTS10Expression, @object
	.size	_ZTS10Expression, 13
_ZTS10Expression:
	.string	"10Expression"
	.text
	.type	_Z41__static_initialization_and_destruction_0ii, @function
_Z41__static_initialization_and_destruction_0ii:
.LFB2240:
	.loc 2 44 1
	.cfi_startproc
	endbr64
	pushq	%rbp
	.cfi_def_cfa_offset 16
	.cfi_offset 6, -16
	movq	%rsp, %rbp
	.cfi_def_cfa_register 6
	subq	$16, %rsp
	movl	%edi, -4(%rbp)
	movl	%esi, -8(%rbp)
	.loc 2 44 1
	cmpl	$1, -4(%rbp)
	jne	.L23
	.loc 2 44 1 is_stmt 0 discriminator 1
	cmpl	$65535, -8(%rbp)
	jne	.L23
	.file 3 "/usr/include/c++/11/iostream"
	.loc 3 74 25 is_stmt 1
	leaq	_ZStL8__ioinit(%rip), %rax
	movq	%rax, %rdi
	call	_ZNSt8ios_base4InitC1Ev@PLT
	leaq	__dso_handle(%rip), %rax
	movq	%rax, %rdx
	leaq	_ZStL8__ioinit(%rip), %rax
	movq	%rax, %rsi
	movq	_ZNSt8ios_base4InitD1Ev@GOTPCREL(%rip), %rax
	movq	%rax, %rdi
	call	__cxa_atexit@PLT
.L23:
	.loc 2 44 1
	nop
	leave
	.cfi_def_cfa 7, 8
	ret
	.cfi_endproc
.LFE2240:
	.size	_Z41__static_initialization_and_destruction_0ii, .-_Z41__static_initialization_and_destruction_0ii
	.type	_GLOBAL__sub_I__ZN16BinaryExpressionC2EP10ExpressioncS1_, @function
_GLOBAL__sub_I__ZN16BinaryExpressionC2EP10ExpressioncS1_:
.LFB2241:
	.loc 2 44 1
	.cfi_startproc
	endbr64
	pushq	%rbp
	.cfi_def_cfa_offset 16
	.cfi_offset 6, -16
	movq	%rsp, %rbp
	.cfi_def_cfa_register 6
	.loc 2 44 1
	movl	$65535, %esi
	movl	$1, %edi
	call	_Z41__static_initialization_and_destruction_0ii
	popq	%rbp
	.cfi_def_cfa 7, 8
	ret
	.cfi_endproc
.LFE2241:
	.size	_GLOBAL__sub_I__ZN16BinaryExpressionC2EP10ExpressioncS1_, .-_GLOBAL__sub_I__ZN16BinaryExpressionC2EP10ExpressioncS1_
	.section	.init_array,"aw"
	.align 8
	.quad	_GLOBAL__sub_I__ZN16BinaryExpressionC2EP10ExpressioncS1_
	.weak	__cxa_pure_virtual
	.text
.Letext0:
	.file 4 "<built-in>"
	.file 5 "/usr/lib/gcc/x86_64-linux-gnu/11/include/stddef.h"
	.file 6 "/usr/include/x86_64-linux-gnu/bits/types/wint_t.h"
	.file 7 "/usr/include/x86_64-linux-gnu/bits/types/__mbstate_t.h"
	.file 8 "/usr/include/x86_64-linux-gnu/bits/types/mbstate_t.h"
	.file 9 "/usr/include/x86_64-linux-gnu/bits/types/__FILE.h"
	.file 10 "/usr/include/x86_64-linux-gnu/bits/types/struct_FILE.h"
	.file 11 "/usr/include/x86_64-linux-gnu/bits/types/FILE.h"
	.file 12 "/usr/include/c++/11/cwchar"
	.file 13 "/usr/include/x86_64-linux-gnu/c++/11/bits/c++config.h"
	.file 14 "/usr/include/c++/11/type_traits"
	.file 15 "/usr/include/c++/11/bits/exception_ptr.h"
	.file 16 "/usr/include/c++/11/debug/debug.h"
	.file 17 "/usr/include/c++/11/cstdint"
	.file 18 "/usr/include/c++/11/clocale"
	.file 19 "/usr/include/c++/11/cstdlib"
	.file 20 "/usr/include/c++/11/cstdio"
	.file 21 "/usr/include/c++/11/bits/ios_base.h"
	.file 22 "/usr/include/c++/11/cwctype"
	.file 23 "/usr/include/c++/11/stdexcept"
	.file 24 "/usr/include/wchar.h"
	.file 25 "/usr/include/x86_64-linux-gnu/bits/types/struct_tm.h"
	.file 26 "/usr/include/c++/11/bits/predefined_ops.h"
	.file 27 "/usr/include/x86_64-linux-gnu/bits/types.h"
	.file 28 "/usr/include/x86_64-linux-gnu/bits/stdint-intn.h"
	.file 29 "/usr/include/x86_64-linux-gnu/bits/stdint-uintn.h"
	.file 30 "/usr/include/stdint.h"
	.file 31 "/usr/include/locale.h"
	.file 32 "/usr/include/stdlib.h"
	.file 33 "/usr/include/x86_64-linux-gnu/bits/types/__fpos_t.h"
	.file 34 "/usr/include/stdio.h"
	.file 35 "/usr/include/x86_64-linux-gnu/bits/wctype-wchar.h"
	.file 36 "/usr/include/wctype.h"
	.file 37 "../headers/BinaryExpression.h"
	.file 38 "/usr/include/c++/11/new"
	.file 39 "/usr/include/c++/11/bits/stl_iterator_base_types.h"
	.file 40 "/usr/include/c++/11/system_error"
	.section	.data.rel.local.DW.ref.__gxx_personality_v0,"awG",@progbits,DW.ref.__gxx_personality_v0,comdat
	.align 8
	.type	DW.ref.__gxx_personality_v0, @object
	.size	DW.ref.__gxx_personality_v0, 8
DW.ref.__gxx_personality_v0:
	.quad	__gxx_personality_v0
	.hidden	__dso_handle
	.ident	"GCC: (Ubuntu 11.4.0-1ubuntu1~22.04) 11.4.0"
	.section	.note.GNU-stack,"",@progbits
	.section	.note.gnu.property,"a"
	.align 8
	.long	1f - 0f
	.long	4f - 1f
	.long	5
0:
	.string	"GNU"
1:
	.align 8
	.long	0xc0000002
	.long	3f - 2f
2:
	.long	0x3
3:
	.align 8
4:
